; ModuleID = '38/162.c'
source_filename = "38/162.c"
target datalayout = "e-m:e-p270:32:32-p271:32:32-p272:64:64-i64:64-f80:128-n8:16:32:64-S128"
target triple = "x86_64-pc-linux-gnu"

@.str = private unnamed_addr constant [3 x i8] c"%d\00", align 1
@.str.1 = private unnamed_addr constant [4 x i8] c"%lf\00", align 1
@.str.2 = private unnamed_addr constant [6 x i8] c"%.5f\0A\00", align 1

; Function Attrs: noinline nounwind uwtable
define dso_local void @main() #0 {
  %1 = alloca i32, align 4
  %2 = alloca i32, align 4
  %3 = alloca i32, align 4
  %4 = alloca i32, align 4
  %5 = alloca [100 x double], align 16
  %6 = alloca double, align 8
  %7 = alloca double, align 8
  store double 0.000000e+00, double* %6, align 8
  %8 = call i32 (i8*, ...) @__isoc99_scanf(i8* getelementptr inbounds ([3 x i8], [3 x i8]* @.str, i64 0, i64 0), i32* %1)
  store i32 0, i32* %4, align 4
  br label %9

9:                                                ; preds = %70, %0
  %10 = load i32, i32* %4, align 4
  %11 = load i32, i32* %1, align 4
  %12 = icmp slt i32 %10, %11
  br i1 %12, label %13, label %73

13:                                               ; preds = %9
  store double 0.000000e+00, double* %6, align 8
  %14 = call i32 (i8*, ...) @__isoc99_scanf(i8* getelementptr inbounds ([3 x i8], [3 x i8]* @.str, i64 0, i64 0), i32* %2)
  store i32 0, i32* %3, align 4
  br label %15

15:                                               ; preds = %30, %13
  %16 = load i32, i32* %3, align 4
  %17 = load i32, i32* %2, align 4
  %18 = icmp slt i32 %16, %17
  br i1 %18, label %19, label %33

19:                                               ; preds = %15
  %20 = load i32, i32* %3, align 4
  %21 = sext i32 %20 to i64
  %22 = getelementptr inbounds [100 x double], [100 x double]* %5, i64 0, i64 %21
  %23 = call i32 (i8*, ...) @__isoc99_scanf(i8* getelementptr inbounds ([4 x i8], [4 x i8]* @.str.1, i64 0, i64 0), double* %22)
  %24 = load double, double* %6, align 8
  %25 = load i32, i32* %3, align 4
  %26 = sext i32 %25 to i64
  %27 = getelementptr inbounds [100 x double], [100 x double]* %5, i64 0, i64 %26
  %28 = load double, double* %27, align 8
  %29 = fadd double %24, %28
  store double %29, double* %6, align 8
  br label %30

30:                                               ; preds = %19
  %31 = load i32, i32* %3, align 4
  %32 = add nsw i32 %31, 1
  store i32 %32, i32* %3, align 4
  br label %15

33:                                               ; preds = %15
  %34 = load double, double* %6, align 8
  %35 = load i32, i32* %2, align 4
  %36 = sitofp i32 %35 to double
  %37 = fdiv double %34, %36
  store double %37, double* %6, align 8
  store double 0.000000e+00, double* %7, align 8
  store i32 0, i32* %3, align 4
  br label %38

38:                                               ; preds = %58, %33
  %39 = load i32, i32* %3, align 4
  %40 = load i32, i32* %2, align 4
  %41 = icmp slt i32 %39, %40
  br i1 %41, label %42, label %61

42:                                               ; preds = %38
  %43 = load double, double* %7, align 8
  %44 = load i32, i32* %3, align 4
  %45 = sext i32 %44 to i64
  %46 = getelementptr inbounds [100 x double], [100 x double]* %5, i64 0, i64 %45
  %47 = load double, double* %46, align 8
  %48 = load double, double* %6, align 8
  %49 = fsub double %47, %48
  %50 = load i32, i32* %3, align 4
  %51 = sext i32 %50 to i64
  %52 = getelementptr inbounds [100 x double], [100 x double]* %5, i64 0, i64 %51
  %53 = load double, double* %52, align 8
  %54 = load double, double* %6, align 8
  %55 = fsub double %53, %54
  %56 = fmul double %49, %55
  %57 = fadd double %43, %56
  store double %57, double* %7, align 8
  br label %58

58:                                               ; preds = %42
  %59 = load i32, i32* %3, align 4
  %60 = add nsw i32 %59, 1
  store i32 %60, i32* %3, align 4
  br label %38

61:                                               ; preds = %38
  %62 = load double, double* %7, align 8
  %63 = load i32, i32* %2, align 4
  %64 = sitofp i32 %63 to double
  %65 = fdiv double %62, %64
  store double %65, double* %7, align 8
  %66 = load double, double* %7, align 8
  %67 = call double @sqrt(double %66) #3
  store double %67, double* %7, align 8
  %68 = load double, double* %7, align 8
  %69 = call i32 (i8*, ...) @printf(i8* getelementptr inbounds ([6 x i8], [6 x i8]* @.str.2, i64 0, i64 0), double %68)
  br label %70

70:                                               ; preds = %61
  %71 = load i32, i32* %4, align 4
  %72 = add nsw i32 %71, 1
  store i32 %72, i32* %4, align 4
  br label %9

73:                                               ; preds = %9
  ret void
}

declare dso_local i32 @__isoc99_scanf(i8*, ...) #1

; Function Attrs: nounwind
declare dso_local double @sqrt(double) #2

declare dso_local i32 @printf(i8*, ...) #1


!llvm.module.flags = !{!0}
!llvm.ident = !{!1}

!0 = !{i32 1, !"wchar_size", i32 4}
!1 = !{!"clang version 10.0.0-4ubuntu1 "}
